target datalayout = "e-m:e-p270:32:32-p271:32:32-p272:64:64-i64:64-i128:128-f80:128-n8:16:32:64-S128"
target triple = "x86_64-pc-linux-gnu"

%class.ErrorHandler = type <{ i32, i32, i8, i8, i8, i8, i8, i8, [2 x i8] }>
%class.File = type { ptr, i64, i8, i32, i8, i8, i32, i8, i8, i8, i8, i8, i64, i8, [2048 x i32], i32, ptr }
%class.uiMsgStore = type <{ [8 x ptr], [8 x i32], i32, i32, i32, [4 x i8] }>

@ErrHandler = external global %class.ErrorHandler, align 4
@.str.8 = private unnamed_addr constant [1 x i32] zeroinitializer, align 4

; Function Attrs: mustprogress nounwind uwtable
define linkonce_odr void @_Z9uiMsgBaseR10uiMsgStore(ptr noundef nonnull align 8 dereferenceable(108) %0) #1 comdat {
  %2 = alloca ptr, align 8
  store ptr %0, ptr %2, align 8
  ret void
}

; Function Attrs: mustprogress nounwind uwtable
define linkonce_odr void @_Z9uiMsgBaseIRPKwJEEvR10uiMsgStoreOT_DpOT0_(ptr noundef nonnull align 8 dereferenceable(108) %0, ptr noundef nonnull align 8 dereferenceable(8) %1) #1 comdat {
  %3 = alloca ptr, align 8
  %4 = alloca ptr, align 8
  store ptr %0, ptr %3, align 8
  store ptr %1, ptr %4, align 8
  %5 = load ptr, ptr %3, align 8
  %6 = load ptr, ptr %4, align 8
  %7 = load ptr, ptr %6, align 8
  %8 = call noundef nonnull align 8 dereferenceable(108) ptr @_ZN10uiMsgStorelsEPKw(ptr noundef nonnull align 8 dereferenceable(108) %5, ptr noundef %7)
  %9 = load ptr, ptr %3, align 8
  call void @_Z9uiMsgBaseR10uiMsgStore(ptr noundef nonnull align 8 dereferenceable(108) %9)
  ret void
}

; Function Attrs: mustprogress uwtable
define linkonce_odr void @_Z9uiMsgBaseIRPKwJS2_EEvR10uiMsgStoreOT_DpOT0_(ptr noundef nonnull align 8 dereferenceable(108) %0, ptr noundef nonnull align 8 dereferenceable(8) %1, ptr noundef nonnull align 8 dereferenceable(8) %2) #0 comdat {
  %4 = alloca ptr, align 8
  %5 = alloca ptr, align 8
  %6 = alloca ptr, align 8
  store ptr %0, ptr %4, align 8
  store ptr %1, ptr %5, align 8
  store ptr %2, ptr %6, align 8
  %7 = load ptr, ptr %4, align 8
  %8 = load ptr, ptr %5, align 8
  %9 = load ptr, ptr %8, align 8
  %10 = call noundef nonnull align 8 dereferenceable(108) ptr @_ZN10uiMsgStorelsEPKw(ptr noundef nonnull align 8 dereferenceable(108) %7, ptr noundef %9)
  %11 = load ptr, ptr %4, align 8
  %12 = load ptr, ptr %6, align 8
  call void @_Z9uiMsgBaseIRPKwJEEvR10uiMsgStoreOT_DpOT0_(ptr noundef nonnull align 8 dereferenceable(108) %11, ptr noundef nonnull align 8 dereferenceable(8) %12)
  ret void
}

; Function Attrs: mustprogress nounwind uwtable
define linkonce_odr noundef nonnull align 8 dereferenceable(108) ptr @_ZN10uiMsgStorelsEPKw(ptr noundef nonnull align 8 dereferenceable(108) %0, ptr noundef %1) #1 comdat align 2 {
  %3 = alloca ptr, align 8
  %4 = alloca ptr, align 8
  store ptr %0, ptr %3, align 8
  store ptr %1, ptr %4, align 8
  %5 = load ptr, ptr %3, align 8
  %6 = getelementptr inbounds %class.uiMsgStore, ptr %5, i32 0, i32 2
  %7 = load i32, ptr %6, align 8
  %8 = zext i32 %7 to i64
  %9 = icmp ult i64 %8, 8
  br i1 %9, label %10, label %18

10:                                               ; preds = %2
  %11 = load ptr, ptr %4, align 8
  %12 = getelementptr inbounds %class.uiMsgStore, ptr %5, i32 0, i32 0
  %13 = getelementptr inbounds %class.uiMsgStore, ptr %5, i32 0, i32 2
  %14 = load i32, ptr %13, align 8
  %15 = add i32 %14, 1
  store i32 %15, ptr %13, align 8
  %16 = zext i32 %14 to i64
  %17 = getelementptr inbounds [8 x ptr], ptr %12, i64 0, i64 %16
  store ptr %11, ptr %17, align 8
  br label %18

18:                                               ; preds = %10, %2
  ret ptr %5
}

; Function Attrs: mustprogress uwtable
define linkonce_odr void @_Z9uiMsgBaseIRA2048_wJRPKwS4_EEvR10uiMsgStoreOT_DpOT0_(ptr noundef nonnull align 8 dereferenceable(108) %0, ptr noundef nonnull align 4 dereferenceable(8192) %1, ptr noundef nonnull align 8 dereferenceable(8) %2, ptr noundef nonnull align 8 dereferenceable(8) %3) #0 comdat {
  %5 = alloca ptr, align 8
  %6 = alloca ptr, align 8
  %7 = alloca ptr, align 8
  %8 = alloca ptr, align 8
  store ptr %0, ptr %5, align 8
  store ptr %1, ptr %6, align 8
  store ptr %2, ptr %7, align 8
  store ptr %3, ptr %8, align 8
  %9 = load ptr, ptr %5, align 8
  %10 = load ptr, ptr %6, align 8
  %11 = getelementptr inbounds [2048 x i32], ptr %10, i64 0, i64 0
  %12 = call noundef nonnull align 8 dereferenceable(108) ptr @_ZN10uiMsgStorelsEPKw(ptr noundef nonnull align 8 dereferenceable(108) %9, ptr noundef %11)
  %13 = load ptr, ptr %5, align 8
  %14 = load ptr, ptr %7, align 8
  %15 = load ptr, ptr %8, align 8
  call void @_Z9uiMsgBaseIRPKwJS2_EEvR10uiMsgStoreOT_DpOT0_(ptr noundef nonnull align 8 dereferenceable(108) %13, ptr noundef nonnull align 8 dereferenceable(8) %14, ptr noundef nonnull align 8 dereferenceable(8) %15)
  ret void
}

; Function Attrs: mustprogress nounwind uwtable
define linkonce_odr void @_ZN10uiMsgStoreC2E14UIMESSAGE_CODE(ptr noundef nonnull align 8 dereferenceable(108) %0, i32 noundef %1) unnamed_addr #1 comdat align 2 {
  %3 = alloca ptr, align 8
  %4 = alloca i32, align 4
  %5 = alloca i32, align 4
  store ptr %0, ptr %3, align 8
  store i32 %1, ptr %4, align 4
  %6 = load ptr, ptr %3, align 8
  store i32 0, ptr %5, align 4
  br label %7

7:                                                ; preds = %16, %2
  %8 = load i32, ptr %5, align 4
  %9 = zext i32 %8 to i64
  %10 = icmp ult i64 %9, 8
  br i1 %10, label %11, label %19

11:                                               ; preds = %7
  %12 = getelementptr inbounds %class.uiMsgStore, ptr %6, i32 0, i32 0
  %13 = load i32, ptr %5, align 4
  %14 = zext i32 %13 to i64
  %15 = getelementptr inbounds [8 x ptr], ptr %12, i64 0, i64 %14
  store ptr @.str.8, ptr %15, align 8
  br label %16

16:                                               ; preds = %11
  %17 = load i32, ptr %5, align 4
  %18 = add i32 %17, 1
  store i32 %18, ptr %5, align 4
  br label %7, !llvm.loop !12

19:                                               ; preds = %7
  %20 = getelementptr inbounds %class.uiMsgStore, ptr %6, i32 0, i32 1
  %21 = getelementptr inbounds [8 x i32], ptr %20, i64 0, i64 0
  call void @llvm.memset.p0.i64(ptr align 8 %21, i8 0, i64 32, i1 false)
  %22 = getelementptr inbounds %class.uiMsgStore, ptr %6, i32 0, i32 2
  store i32 0, ptr %22, align 8
  %23 = getelementptr inbounds %class.uiMsgStore, ptr %6, i32 0, i32 3
  store i32 0, ptr %23, align 4
  %24 = load i32, ptr %4, align 4
  %25 = getelementptr inbounds %class.uiMsgStore, ptr %6, i32 0, i32 4
  store i32 %24, ptr %25, align 8
  ret void
}

; Function Attrs: mustprogress uwtable
define linkonce_odr void @_Z5uiMsgIJRA2048_wRPKwS4_EEv14UIMESSAGE_CODEDpOT_(i32 noundef %0, ptr noundef nonnull align 4 dereferenceable(8192) %1, ptr noundef nonnull align 8 dereferenceable(8) %2, ptr noundef nonnull align 8 dereferenceable(8) %3) #0 comdat {
  %5 = alloca i32, align 4
  %6 = alloca ptr, align 8
  %7 = alloca ptr, align 8
  %8 = alloca ptr, align 8
  %9 = alloca %class.uiMsgStore, align 8
  store i32 %0, ptr %5, align 4
  store ptr %1, ptr %6, align 8
  store ptr %2, ptr %7, align 8
  store ptr %3, ptr %8, align 8
  %10 = load i32, ptr %5, align 4
  call void @_ZN10uiMsgStoreC2E14UIMESSAGE_CODE(ptr noundef nonnull align 8 dereferenceable(108) %9, i32 noundef %10)
  %11 = load ptr, ptr %6, align 8
  %12 = load ptr, ptr %7, align 8
  %13 = load ptr, ptr %8, align 8
  call void @_Z9uiMsgBaseIRA2048_wJRPKwS4_EEvR10uiMsgStoreOT_DpOT0_(ptr noundef nonnull align 8 dereferenceable(108) %9, ptr noundef nonnull align 4 dereferenceable(8192) %11, ptr noundef nonnull align 8 dereferenceable(8) %12, ptr noundef nonnull align 8 dereferenceable(8) %13)
  call void @_ZN10uiMsgStore3MsgEv(ptr noundef nonnull align 8 dereferenceable(108) %9)
  ret void
}

; Function Attrs: mustprogress uwtable
define void @_ZN7Archive12UnkEncVerMsgEPKwS1_(ptr noundef nonnull align 8 dereferenceable(57108) %0, ptr noundef %1, ptr noundef %2) #0 align 2 {
  %4 = alloca ptr, align 8
  %5 = alloca ptr, align 8
  %6 = alloca ptr, align 8
  store ptr %0, ptr %4, align 8
  store ptr %1, ptr %5, align 8
  store ptr %2, ptr %6, align 8
  %7 = load ptr, ptr %4, align 8
  %8 = getelementptr inbounds %class.File, ptr %7, i32 0, i32 14
  call void @_Z5uiMsgIJRA2048_wRPKwS4_EEv14UIMESSAGE_CODEDpOT_(i32 noundef 34, ptr noundef nonnull align 4 dereferenceable(8192) %8, ptr noundef nonnull align 8 dereferenceable(8) %5, ptr noundef nonnull align 8 dereferenceable(8) %6)
  call void @_ZN12ErrorHandler12SetErrorCodeE8RAR_EXIT(ptr noundef nonnull align 4 dereferenceable(14) @ErrHandler, i32 noundef 1)
  ret void
}